; Function Attrs: nounwind uwtable
define i32 @Abc_ManReadInteger(ptr noundef %0, ptr noundef readonly captures(none) %1) local_unnamed_addr #2 {
  %3 = tail call ptr @Abc_ManReadFile(ptr noundef %0)
  %4 = icmp eq ptr %3, null
  br i1 %4, label %12, label %5

5:                                                ; preds = %2
  %6 = getelementptr i8, ptr %3, i64 8
  %.val = load ptr, ptr %6, align 8
  %7 = tail call ptr @strstr(ptr noundef nonnull dereferenceable(1) %.val, ptr noundef nonnull dereferenceable(1) %1) #13
  %.not = icmp eq ptr %7, null
  br i1 %.not, label %Vec_StrFree.exit, label %8

8:                                                ; preds = %5
  %9 = tail call i64 @strlen(ptr noundef nonnull dereferenceable(1) %1) #13
  %10 = getelementptr inbounds i8, ptr %7, i64 %9
  %11 = tail call i32 @atoi(ptr noundef nonnull %10) #13
  br label %Vec_StrFree.exit

Vec_StrFree.exit:                                 ; preds = %8, %5
  %.010 = phi i32 [ %11, %8 ], [ -1, %5 ]
  tail call void @free(ptr noundef nonnull %.val) #16
  tail call void @free(ptr noundef nonnull %3) #16
  br label %12

12:                                               ; preds = %2, %Vec_StrFree.exit
  %.0 = phi i32 [ %.010, %Vec_StrFree.exit ], [ -1, %2 ]
  ret i32 %.0
}